; Function Attrs: mustprogress uwtable
define dso_local void @_ZN7cmState25GetCacheEntryPropertyListERKNSt7__cxx1112basic_stringIcSt11char_traitsIcESaIcEEE(ptr dead_on_unwind noalias writable sret(%"class.std::vector") align 8 %0, ptr noundef nonnull readonly align 8 captures(none) dereferenceable(705) %1, ptr noundef nonnull align 8 dereferenceable(32) %2) local_unnamed_addr #5 align 2 {
  %4 = getelementptr inbounds nuw i8, ptr %1, i64 296
  %5 = load ptr, ptr %4, align 8, !tbaa !120
  tail call void @llvm.experimental.noalias.scope.decl(metadata !160)
  %6 = tail call noundef ptr @_ZNK14cmCacheManager13GetCacheEntryERKNSt7__cxx1112basic_stringIcSt11char_traitsIcESaIcEEE(ptr noundef nonnull align 8 dereferenceable(60) %5, ptr noundef nonnull align 8 dereferenceable(32) %2), !noalias !160
  %.not.not.i = icmp eq ptr %6, null
  br i1 %.not.not.i, label %8, label %7

7:                                                ; preds = %3
  tail call void @_ZNK14cmCacheManager10CacheEntry15GetPropertyListB5cxx11Ev(ptr dead_on_unwind writable sret(%"class.std::vector") align 8 %0, ptr noundef nonnull align 8 dereferenceable(97) %6)
  br label %_ZNK14cmCacheManager25GetCacheEntryPropertyListERKNSt7__cxx1112basic_stringIcSt11char_traitsIcESaIcEEE.exit

8:                                                ; preds = %3
  tail call void @llvm.memset.p0.i64(ptr noundef nonnull align 8 dereferenceable(24) %0, i8 0, i64 24, i1 false), !alias.scope !160
  br label %_ZNK14cmCacheManager25GetCacheEntryPropertyListERKNSt7__cxx1112basic_stringIcSt11char_traitsIcESaIcEEE.exit

_ZNK14cmCacheManager25GetCacheEntryPropertyListERKNSt7__cxx1112basic_stringIcSt11char_traitsIcESaIcEEE.exit: ; preds = %7, %8
  ret void
}